; ModuleID = '45/2932.c'
source_filename = "45/2932.c"
target datalayout = "e-m:e-p270:32:32-p271:32:32-p272:64:64-i64:64-f80:128-n8:16:32:64-S128"
target triple = "x86_64-pc-linux-gnu"

@.str = private unnamed_addr constant [3 x i8] c"%c\00", align 1
@.str.1 = private unnamed_addr constant [3 x i8] c"%d\00", align 1

; Function Attrs: noinline nounwind uwtable
define dso_local i32 @main() #0 {
  %1 = alloca i32, align 4
  %2 = alloca [51 x i8], align 16
  %3 = alloca [51 x i8], align 16
  %4 = alloca i32, align 4
  %5 = alloca i32, align 4
  %6 = alloca i32, align 4
  %7 = alloca i32, align 4
  %8 = alloca i32, align 4
  %9 = alloca i32, align 4
  %10 = alloca i32, align 4
  store i32 0, i32* %1, align 4
  store i32 0, i32* %4, align 4
  br label %11

11:                                               ; preds = %18, %0
  %12 = load i32, i32* %4, align 4
  %13 = add nsw i32 %12, 1
  store i32 %13, i32* %4, align 4
  %14 = load i32, i32* %4, align 4
  %15 = sext i32 %14 to i64
  %16 = getelementptr inbounds [51 x i8], [51 x i8]* %2, i64 0, i64 %15
  %17 = call i32 (i8*, ...) @__isoc99_scanf(i8* getelementptr inbounds ([3 x i8], [3 x i8]* @.str, i64 0, i64 0), i8* %16)
  br label %18

18:                                               ; preds = %11
  %19 = load i32, i32* %4, align 4
  %20 = sext i32 %19 to i64
  %21 = getelementptr inbounds [51 x i8], [51 x i8]* %2, i64 0, i64 %20
  %22 = load i8, i8* %21, align 1
  %23 = sext i8 %22 to i32
  %24 = icmp ne i32 %23, 32
  br i1 %24, label %11, label %25

25:                                               ; preds = %18
  %26 = load i32, i32* %4, align 4
  store i32 %26, i32* %8, align 4
  store i32 0, i32* %4, align 4
  br label %27

27:                                               ; preds = %34, %25
  %28 = load i32, i32* %4, align 4
  %29 = add nsw i32 %28, 1
  store i32 %29, i32* %4, align 4
  %30 = load i32, i32* %4, align 4
  %31 = sext i32 %30 to i64
  %32 = getelementptr inbounds [51 x i8], [51 x i8]* %3, i64 0, i64 %31
  %33 = call i32 (i8*, ...) @__isoc99_scanf(i8* getelementptr inbounds ([3 x i8], [3 x i8]* @.str, i64 0, i64 0), i8* %32)
  br label %34

34:                                               ; preds = %27
  %35 = load i32, i32* %4, align 4
  %36 = sext i32 %35 to i64
  %37 = getelementptr inbounds [51 x i8], [51 x i8]* %3, i64 0, i64 %36
  %38 = load i8, i8* %37, align 1
  %39 = sext i8 %38 to i32
  %40 = icmp ne i32 %39, 10
  br i1 %40, label %27, label %41

41:                                               ; preds = %34
  %42 = load i32, i32* %4, align 4
  store i32 %42, i32* %9, align 4
  store i32 1, i32* %7, align 4
  br label %43

43:                                               ; preds = %41
  %44 = load i32, i32* %7, align 4
  store i32 %44, i32* %4, align 4
  br label %45

45:                                               ; preds = %86, %43
  %46 = load i32, i32* %4, align 4
  %47 = load i32, i32* %9, align 4
  %48 = icmp sle i32 %46, %47
  br i1 %48, label %49, label %89

49:                                               ; preds = %45
  store i32 0, i32* %10, align 4
  %50 = load i32, i32* %4, align 4
  store i32 %50, i32* %7, align 4
  store i32 1, i32* %5, align 4
  br label %51

51:                                               ; preds = %71, %49
  %52 = load i32, i32* %5, align 4
  %53 = load i32, i32* %8, align 4
  %54 = icmp sle i32 %52, %53
  br i1 %54, label %55, label %76

55:                                               ; preds = %51
  %56 = load i32, i32* %5, align 4
  %57 = sext i32 %56 to i64
  %58 = getelementptr inbounds [51 x i8], [51 x i8]* %2, i64 0, i64 %57
  %59 = load i8, i8* %58, align 1
  %60 = sext i8 %59 to i32
  %61 = load i32, i32* %7, align 4
  %62 = sext i32 %61 to i64
  %63 = getelementptr inbounds [51 x i8], [51 x i8]* %3, i64 0, i64 %62
  %64 = load i8, i8* %63, align 1
  %65 = sext i8 %64 to i32
  %66 = icmp eq i32 %60, %65
  br i1 %66, label %67, label %70

67:                                               ; preds = %55
  %68 = load i32, i32* %10, align 4
  %69 = add nsw i32 %68, 1
  store i32 %69, i32* %10, align 4
  br label %70

70:                                               ; preds = %67, %55
  br label %71

71:                                               ; preds = %70
  %72 = load i32, i32* %5, align 4
  %73 = add nsw i32 %72, 1
  store i32 %73, i32* %5, align 4
  %74 = load i32, i32* %7, align 4
  %75 = add nsw i32 %74, 1
  store i32 %75, i32* %7, align 4
  br label %51

76:                                               ; preds = %51
  %77 = load i32, i32* %10, align 4
  %78 = load i32, i32* %8, align 4
  %79 = sub nsw i32 %78, 1
  %80 = icmp eq i32 %77, %79
  br i1 %80, label %81, label %85

81:                                               ; preds = %76
  %82 = load i32, i32* %4, align 4
  %83 = sub nsw i32 %82, 1
  %84 = call i32 (i8*, ...) @printf(i8* getelementptr inbounds ([3 x i8], [3 x i8]* @.str.1, i64 0, i64 0), i32 %83)
  br label %89

85:                                               ; preds = %76
  br label %86

86:                                               ; preds = %85
  %87 = load i32, i32* %4, align 4
  %88 = add nsw i32 %87, 1
  store i32 %88, i32* %4, align 4
  br label %45

89:                                               ; preds = %81, %45
  ret i32 0
}

declare dso_local i32 @__isoc99_scanf(i8*, ...) #1

declare dso_local i32 @printf(i8*, ...) #1


!llvm.module.flags = !{!0}
!llvm.ident = !{!1}

!0 = !{i32 1, !"wchar_size", i32 4}
!1 = !{!"clang version 10.0.0-4ubuntu1 "}
